	.text
	.file	"int16tofloat32.cpp"
	.file	1 "/usr/lib/gcc/x86_64-linux-gnu/12/../../../../include/x86_64-linux-gnu/c++/12/bits" "atomic_word.h"
	.file	2 "/usr/lib/gcc/x86_64-linux-gnu/12/../../../../include/c++/12/bits" "ios_base.h"
	.file	3 "/usr/lib/gcc/x86_64-linux-gnu/12/../../../../include/c++/12" "iostream"
	.file	4 "/home/msakamoto/test/pointer" "int16tofloat32.cpp"
	.file	5 "/usr/include/x86_64-linux-gnu/bits" "types.h"
	.file	6 "/usr/include/x86_64-linux-gnu/bits" "stdint-intn.h"
	.file	7 "/home/msakamoto/test/pointer" "./types.h"
	.file	8 "/usr/lib/gcc/x86_64-linux-gnu/12/../../../../include/x86_64-linux-gnu/c++/12/bits" "c++config.h"
	.file	9 "/usr/lib/gcc/x86_64-linux-gnu/12/../../../../include/c++/12/bits" "postypes.h"
	.section	.rodata.cst16,"aM",@progbits,16
	.p2align	4, 0x0                          # -- Begin function main
.LCPI0_0:
	.long	0x3f8ccccd                      #  1.10000002
	.long	0x40066666                      #  2.0999999
	.long	0x3f8ccccd                      #  1.10000002
	.long	0x40066666                      #  2.0999999
	.text
	.globl	main
	.p2align	4, 0x90
	.type	main,@function
main:                                   # 
.Lfunc_begin0:
	.loc	4 11 0                          # int16tofloat32.cpp:11:0
	.cfi_startproc
# %bb.0:
	pushq	%r15
	.cfi_def_cfa_offset 16
	pushq	%r14
	.cfi_def_cfa_offset 24
	pushq	%r12
	.cfi_def_cfa_offset 32
	pushq	%rbx
	.cfi_def_cfa_offset 40
	pushq	%rax
	.cfi_def_cfa_offset 48
	.cfi_offset %rbx, -40
	.cfi_offset %r12, -32
	.cfi_offset %r14, -24
	.cfi_offset %r15, -16
	stmxcsr	4(%rsp)
	orl	$32832, 4(%rsp)                 # imm = 0x8040
	ldmxcsr	4(%rsp)
.Ltmp0:
	.loc	4 14 26 prologue_end            # int16tofloat32.cpp:14:26
	movl	$64, %edi
	movl	$8192, %esi                     # imm = 0x2000
	callq	aligned_alloc
.Ltmp1:
	movq	%rax, %rbx
	xorl	%eax, %eax
.Ltmp2:
	#DEBUG_VALUE: main:i <- 0
	.loc	4 33 25 discriminator 2         # int16tofloat32.cpp:33:25
	movaps	.LCPI0_0(%rip), %xmm0           # xmm0 = [1.10000002E+0,2.0999999E+0,1.10000002E+0,2.0999999E+0]
.Ltmp3:
	.p2align	4, 0x90
.LBB0_1:                                # =>This Inner Loop Header: Depth=1
	#DEBUG_VALUE: main:i <- 0
	.loc	4 20 27                         # int16tofloat32.cpp:20:27
	movl	%eax, %ecx
	imull	%eax, %ecx
	leal	1(%rax), %edx
	.loc	4 19 23                         # int16tofloat32.cpp:19:23
	movd	%eax, %xmm1
	movd	%ecx, %xmm2
	punpckldq	%xmm2, %xmm1            # xmm1 = xmm1[0],xmm2[0],xmm1[1],xmm2[1]
	movd	%edx, %xmm2
	.loc	4 20 27                         # int16tofloat32.cpp:20:27
	imull	%edx, %edx
	.loc	4 19 23                         # int16tofloat32.cpp:19:23
	movd	%edx, %xmm3
	punpckldq	%xmm3, %xmm2            # xmm2 = xmm2[0],xmm3[0],xmm2[1],xmm3[1]
	punpcklqdq	%xmm2, %xmm1            # xmm1 = xmm1[0],xmm2[0]
.Ltmp4:
	.loc	4 27 34                         # int16tofloat32.cpp:27:34
	pslld	$16, %xmm1
	psrad	$16, %xmm1
	cvtdq2ps	%xmm1, %xmm1
.Ltmp5:
	.loc	4 33 25                         # int16tofloat32.cpp:33:25
	mulps	%xmm0, %xmm1
.Ltmp6:
	.loc	4 20 27                         # int16tofloat32.cpp:20:27
	leal	2(%rax), %ecx
.Ltmp7:
	.loc	4 27 34                         # int16tofloat32.cpp:27:34
	pinsrw	$1, %ecx, %xmm2
.Ltmp8:
	.loc	4 33 25                         # int16tofloat32.cpp:33:25
	movaps	%xmm1, (%rbx,%rax,8)
.Ltmp9:
	.loc	4 20 27                         # int16tofloat32.cpp:20:27
	imull	%ecx, %ecx
.Ltmp10:
	.loc	4 27 34                         # int16tofloat32.cpp:27:34
	pinsrw	$3, %ecx, %xmm2
.Ltmp11:
	.loc	4 20 27                         # int16tofloat32.cpp:20:27
	leal	3(%rax), %ecx
.Ltmp12:
	.loc	4 27 34                         # int16tofloat32.cpp:27:34
	pinsrw	$5, %ecx, %xmm2
.Ltmp13:
	.loc	4 20 27                         # int16tofloat32.cpp:20:27
	imull	%ecx, %ecx
.Ltmp14:
	.loc	4 27 34                         # int16tofloat32.cpp:27:34
	pinsrw	$7, %ecx, %xmm2
	psrad	$16, %xmm2
	cvtdq2ps	%xmm2, %xmm1
.Ltmp15:
	.loc	4 33 25                         # int16tofloat32.cpp:33:25
	mulps	%xmm0, %xmm1
	movaps	%xmm1, 16(%rbx,%rax,8)
.Ltmp16:
	.loc	4 17 19                         # int16tofloat32.cpp:17:19
	addq	$4, %rax
	cmpq	$1024, %rax                     # imm = 0x400
.Ltmp17:
	.loc	4 17 5 is_stmt 0                # int16tofloat32.cpp:17:5
	jne	.LBB0_1
.Ltmp18:
# %bb.2:
	#DEBUG_VALUE: main:i <- 0
	.loc	4 0 5                           # int16tofloat32.cpp:0:5
	xorl	%r12d, %r12d
	jmp	.LBB0_3
.Ltmp19:
	.p2align	4, 0x90
.LBB0_6:                                #   in Loop: Header=BB0_3 Depth=1
	#DEBUG_VALUE: main:i <- $r12
	#DEBUG_VALUE: operator<<:this <- $r14
	#DEBUG_VALUE: endl<char, std::char_traits<char> >:__os <- $r14
	#DEBUG_VALUE: widen:__c <- 10
	#DEBUG_VALUE: widen:this <- [DW_OP_LLVM_arg 0, DW_OP_LLVM_arg 1, DW_OP_plus, DW_OP_stack_value] $r14, $rax
	#DEBUG_VALUE: widen:this <- $r15
	#DEBUG_VALUE: widen:__c <- 10
	.file	10 "/usr/lib/gcc/x86_64-linux-gnu/12/../../../../include/c++/12/bits" "locale_facets.h"
	.loc	10 884 8 is_stmt 1              # /usr/lib/gcc/x86_64-linux-gnu/12/../../../../include/c++/12/bits/locale_facets.h:884:8
	movq	%r15, %rdi
	callq	_ZNKSt5ctypeIcE13_M_widen_initEv
.Ltmp20:
	.loc	10 885 15                       # /usr/lib/gcc/x86_64-linux-gnu/12/../../../../include/c++/12/bits/locale_facets.h:885:15
	movq	(%r15), %rax
	movq	%r15, %rdi
	movl	$10, %esi
	callq	*48(%rax)
.Ltmp21:
.LBB0_7:                                #   in Loop: Header=BB0_3 Depth=1
	#DEBUG_VALUE: main:i <- $r12
	#DEBUG_VALUE: operator<<:this <- $r14
	#DEBUG_VALUE: endl<char, std::char_traits<char> >:__os <- $r14
	.file	11 "/usr/lib/gcc/x86_64-linux-gnu/12/../../../../include/c++/12" "ostream"
	.loc	11 689 25                       # /usr/lib/gcc/x86_64-linux-gnu/12/../../../../include/c++/12/ostream:689:25
	movsbl	%al, %esi
	movq	%r14, %rdi
	callq	_ZNSo3putEc
.Ltmp22:
	#DEBUG_VALUE: flush<char, std::char_traits<char> >:__os <- $rax
	.loc	11 711 19                       # /usr/lib/gcc/x86_64-linux-gnu/12/../../../../include/c++/12/ostream:711:19
	movq	%rax, %rdi
	callq	_ZNSo5flushEv
.Ltmp23:
	.loc	4 37 25                         # int16tofloat32.cpp:37:25
	incq	%r12
.Ltmp24:
	#DEBUG_VALUE: main:i <- $r12
	.loc	4 37 19 is_stmt 0               # int16tofloat32.cpp:37:19
	cmpq	$1024, %r12                     # imm = 0x400
.Ltmp25:
	.loc	4 37 5                          # int16tofloat32.cpp:37:5
	je	.LBB0_8
.Ltmp26:
.LBB0_3:                                # =>This Inner Loop Header: Depth=1
	#DEBUG_VALUE: main:i <- $r12
	.loc	4 39 36 is_stmt 1               # int16tofloat32.cpp:39:36
	movss	(%rbx,%r12,8), %xmm0            # xmm0 = mem[0],zero,zero,zero
.Ltmp27:
	#DEBUG_VALUE: operator<<:__f <- $xmm0
	.loc	11 228 39                       # /usr/lib/gcc/x86_64-linux-gnu/12/../../../../include/c++/12/ostream:228:39
	cvtss2sd	%xmm0, %xmm0
.Ltmp28:
	#DEBUG_VALUE: operator<<:this <- undef
	.loc	11 228 9 is_stmt 0              # /usr/lib/gcc/x86_64-linux-gnu/12/../../../../include/c++/12/ostream:228:9
	movl	$_ZSt4cout, %edi
	callq	_ZNSo9_M_insertIdEERSoT_
.Ltmp29:
	movq	%rax, %r14
.Ltmp30:
	#DEBUG_VALUE: operator<<<std::char_traits<char> >:__out <- $r14
	#DEBUG_VALUE: operator<<:this <- $r14
	#DEBUG_VALUE: operator<<<std::char_traits<char> >:__s <- undef
	.loc	11 620 2 is_stmt 1              # /usr/lib/gcc/x86_64-linux-gnu/12/../../../../include/c++/12/ostream:620:2
	movl	$.L.str, %esi
	movl	$1, %edx
	movq	%rax, %rdi
	callq	_ZSt16__ostream_insertIcSt11char_traitsIcEERSt13basic_ostreamIT_T0_ES6_PKS3_l
.Ltmp31:
	.loc	4 39 62                         # int16tofloat32.cpp:39:62
	movss	4(%rbx,%r12,8), %xmm0           # xmm0 = mem[0],zero,zero,zero
.Ltmp32:
	#DEBUG_VALUE: operator<<:__f <- $xmm0
	.loc	11 228 39                       # /usr/lib/gcc/x86_64-linux-gnu/12/../../../../include/c++/12/ostream:228:39
	cvtss2sd	%xmm0, %xmm0
.Ltmp33:
	.loc	11 228 9 is_stmt 0              # /usr/lib/gcc/x86_64-linux-gnu/12/../../../../include/c++/12/ostream:228:9
	movq	%r14, %rdi
	callq	_ZNSo9_M_insertIdEERSoT_
.Ltmp34:
	movq	%rax, %r14
.Ltmp35:
	#DEBUG_VALUE: operator<<<std::char_traits<char> >:__out <- $r14
	#DEBUG_VALUE: operator<<:this <- $r14
	#DEBUG_VALUE: endl<char, std::char_traits<char> >:__os <- $r14
	#DEBUG_VALUE: operator<<<std::char_traits<char> >:__s <- undef
	.loc	11 620 2 is_stmt 1              # /usr/lib/gcc/x86_64-linux-gnu/12/../../../../include/c++/12/ostream:620:2
	movl	$.L.str.1, %esi
	movl	$1, %edx
	movq	%rax, %rdi
	callq	_ZSt16__ostream_insertIcSt11char_traitsIcEERSt13basic_ostreamIT_T0_ES6_PKS3_l
.Ltmp36:
	#DEBUG_VALUE: operator<<:__pf <- undef
	.loc	11 689 29                       # /usr/lib/gcc/x86_64-linux-gnu/12/../../../../include/c++/12/ostream:689:29
	movq	(%r14), %rax
	movq	-24(%rax), %rax
.Ltmp37:
	#DEBUG_VALUE: widen:__c <- 10
	#DEBUG_VALUE: widen:this <- [DW_OP_LLVM_arg 0, DW_OP_LLVM_arg 1, DW_OP_plus, DW_OP_stack_value] $r14, $rax
	.file	12 "/usr/lib/gcc/x86_64-linux-gnu/12/../../../../include/c++/12/bits" "basic_ios.h"
	.loc	12 450 30                       # /usr/lib/gcc/x86_64-linux-gnu/12/../../../../include/c++/12/bits/basic_ios.h:450:30
	movq	240(%r14,%rax), %r15
.Ltmp38:
	#DEBUG_VALUE: __check_facet<std::ctype<char> >:__f <- $r15
	.loc	12 49 12                        # /usr/lib/gcc/x86_64-linux-gnu/12/../../../../include/c++/12/bits/basic_ios.h:49:12
	testq	%r15, %r15
.Ltmp39:
	.loc	12 49 11 is_stmt 0              # /usr/lib/gcc/x86_64-linux-gnu/12/../../../../include/c++/12/bits/basic_ios.h:49:11
	je	.LBB0_9
.Ltmp40:
# %bb.4:                                #   in Loop: Header=BB0_3 Depth=1
	#DEBUG_VALUE: main:i <- $r12
	#DEBUG_VALUE: operator<<:this <- $r14
	#DEBUG_VALUE: endl<char, std::char_traits<char> >:__os <- $r14
	#DEBUG_VALUE: widen:__c <- 10
	#DEBUG_VALUE: widen:this <- [DW_OP_LLVM_arg 0, DW_OP_LLVM_arg 1, DW_OP_plus, DW_OP_stack_value] $r14, $rax
	#DEBUG_VALUE: widen:this <- $r15
	#DEBUG_VALUE: widen:__c <- 10
	.loc	10 882 6 is_stmt 1              # /usr/lib/gcc/x86_64-linux-gnu/12/../../../../include/c++/12/bits/locale_facets.h:882:6
	cmpb	$0, 56(%r15)
.Ltmp41:
	.loc	10 882 6 is_stmt 0              # /usr/lib/gcc/x86_64-linux-gnu/12/../../../../include/c++/12/bits/locale_facets.h:882:6
	je	.LBB0_6
.Ltmp42:
# %bb.5:                                #   in Loop: Header=BB0_3 Depth=1
	#DEBUG_VALUE: main:i <- $r12
	#DEBUG_VALUE: operator<<:this <- $r14
	#DEBUG_VALUE: endl<char, std::char_traits<char> >:__os <- $r14
	#DEBUG_VALUE: widen:__c <- 10
	#DEBUG_VALUE: widen:this <- [DW_OP_LLVM_arg 0, DW_OP_LLVM_arg 1, DW_OP_plus, DW_OP_stack_value] $r14, $rax
	#DEBUG_VALUE: widen:this <- $r15
	#DEBUG_VALUE: widen:__c <- 10
	.loc	10 883 11 is_stmt 1             # /usr/lib/gcc/x86_64-linux-gnu/12/../../../../include/c++/12/bits/locale_facets.h:883:11
	movzbl	67(%r15), %eax
.Ltmp43:
	.loc	10 883 4 is_stmt 0              # /usr/lib/gcc/x86_64-linux-gnu/12/../../../../include/c++/12/bits/locale_facets.h:883:4
	jmp	.LBB0_7
.Ltmp44:
.LBB0_8:
	#DEBUG_VALUE: main:i <- $r12
	.loc	4 41 5 is_stmt 1                # int16tofloat32.cpp:41:5
	xorl	%eax, %eax
	.loc	4 41 5 epilogue_begin is_stmt 0 # int16tofloat32.cpp:41:5
	addq	$8, %rsp
	.cfi_def_cfa_offset 40
	popq	%rbx
	.cfi_def_cfa_offset 32
	popq	%r12
.Ltmp45:
	.cfi_def_cfa_offset 24
	popq	%r14
	.cfi_def_cfa_offset 16
	popq	%r15
	.cfi_def_cfa_offset 8
	retq
.LBB0_9:
	.cfi_def_cfa_offset 48
.Ltmp46:
	#DEBUG_VALUE: main:i <- $r12
	#DEBUG_VALUE: operator<<:this <- $r14
	#DEBUG_VALUE: endl<char, std::char_traits<char> >:__os <- $r14
	#DEBUG_VALUE: widen:__c <- 10
	#DEBUG_VALUE: widen:this <- [DW_OP_LLVM_arg 0, DW_OP_LLVM_arg 1, DW_OP_plus, DW_OP_stack_value] $r14, $rax
	#DEBUG_VALUE: __check_facet<std::ctype<char> >:__f <- $r15
	.loc	12 50 2 is_stmt 1               # /usr/lib/gcc/x86_64-linux-gnu/12/../../../../include/c++/12/bits/basic_ios.h:50:2
	callq	_ZSt16__throw_bad_castv
.Ltmp47:
.Lfunc_end0:
	.size	main, .Lfunc_end0-main
	.cfi_endproc
	.file	13 "/usr/lib/gcc/x86_64-linux-gnu/12/../../../../include/c++/12/bits" "char_traits.h"
	.file	14 "/usr/include" "stdlib.h"
	.file	15 "/opt/intel/oneapi/compiler/2025.0/lib/clang/19/include" "__stddef_size_t.h"
	.file	16 "/usr/lib/gcc/x86_64-linux-gnu/12/../../../../include/c++/12/bits" "ostream_insert.h"
	.file	17 "/usr/lib/gcc/x86_64-linux-gnu/12/../../../../include/c++/12/bits" "functexcept.h"
                                        # -- End function
	.section	.text.startup,"ax",@progbits
	.p2align	4, 0x90                         # -- Begin function _GLOBAL__sub_I_int16tofloat32.cpp
	.type	_GLOBAL__sub_I_int16tofloat32.cpp,@function
_GLOBAL__sub_I_int16tofloat32.cpp:      # 
.Lfunc_begin1:
	.loc	4 0 0                           # int16tofloat32.cpp:0:0
	.cfi_startproc
# %bb.0:
	pushq	%rax
	.cfi_def_cfa_offset 16
	.loc	3 74 25 prologue_end            # /usr/lib/gcc/x86_64-linux-gnu/12/../../../../include/c++/12/iostream:74:25
	movl	$_ZStL8__ioinit, %edi
	callq	_ZNSt8ios_base4InitC1Ev
.Ltmp48:
	.loc	4 0 0 is_stmt 0                 # int16tofloat32.cpp:0:0
	movl	$_ZNSt8ios_base4InitD1Ev, %edi
	movl	$_ZStL8__ioinit, %esi
	movl	$__dso_handle, %edx
	popq	%rax
	.cfi_def_cfa_offset 8
.Ltmp49:
	jmp	__cxa_atexit                    # TAILCALL
.Ltmp50:
.Lfunc_end1:
	.size	_GLOBAL__sub_I_int16tofloat32.cpp, .Lfunc_end1-_GLOBAL__sub_I_int16tofloat32.cpp
	.cfi_endproc
                                        # -- End function
	.type	_ZStL8__ioinit,@object          # 
	.local	_ZStL8__ioinit
	.comm	_ZStL8__ioinit,1,1
	.hidden	__dso_handle
	.type	.L.str,@object                  # 
	.section	.rodata.str1.1,"aMS",@progbits,1
.L.str:
	.asciz	"+"
	.size	.L.str, 2

	.type	.L.str.1,@object                # 
.L.str.1:
	.asciz	"j"
	.size	.L.str.1, 2

	.section	.init_array,"aw",@init_array
	.p2align	3, 0x0
	.quad	_GLOBAL__sub_I_int16tofloat32.cpp
	.file	18 "/usr/lib/gcc/x86_64-linux-gnu/12/../../../../include/c++/12/bits" "std_abs.h"
	.file	19 "/usr/lib/gcc/x86_64-linux-gnu/12/../../../../include/c++/12" "cstdlib"
	.file	20 "/usr/include/x86_64-linux-gnu/bits" "stdlib-float.h"
	.file	21 "/usr/include/x86_64-linux-gnu/bits" "stdlib-bsearch.h"
	.file	22 "/usr/include/x86_64-linux-gnu/bits/types" "__mbstate_t.h"
	.file	23 "/usr/include/x86_64-linux-gnu/bits/types" "mbstate_t.h"
	.file	24 "/usr/lib/gcc/x86_64-linux-gnu/12/../../../../include/c++/12" "cwchar"
	.file	25 "/usr/include/x86_64-linux-gnu/bits/types" "wint_t.h"
	.file	26 "/usr/include" "wchar.h"
	.file	27 "/usr/include/x86_64-linux-gnu/bits/types" "struct_FILE.h"
	.file	28 "/usr/include/x86_64-linux-gnu/bits/types" "__FILE.h"
	.file	29 "/usr/lib/gcc/x86_64-linux-gnu/12/../../../../include/c++/12/bits" "exception_ptr.h"
	.file	30 "/usr/lib/gcc/x86_64-linux-gnu/12/../../../../include/c++/12" "cstdint"
	.file	31 "/usr/include" "stdint.h"
	.file	32 "/usr/include/x86_64-linux-gnu/bits" "stdint-uintn.h"
	.file	33 "/usr/lib/gcc/x86_64-linux-gnu/12/../../../../include/c++/12" "clocale"
	.file	34 "/usr/include" "locale.h"
	.file	35 "/usr/include" "ctype.h"
	.file	36 "/usr/lib/gcc/x86_64-linux-gnu/12/../../../../include/c++/12" "cctype"
	.file	37 "/usr/lib/gcc/x86_64-linux-gnu/12/../../../../include/c++/12/debug" "debug.h"
	.file	38 "/usr/include/x86_64-linux-gnu/bits/types" "FILE.h"
	.file	39 "/usr/lib/gcc/x86_64-linux-gnu/12/../../../../include/c++/12" "cstdio"
	.file	40 "/usr/include/x86_64-linux-gnu/bits/types" "__fpos_t.h"
	.file	41 "/usr/include" "stdio.h"
	.file	42 "/usr/include/x86_64-linux-gnu/bits" "stdio.h"
	.file	43 "/usr/include" "wctype.h"
	.file	44 "/usr/lib/gcc/x86_64-linux-gnu/12/../../../../include/c++/12" "cwctype"
	.file	45 "/usr/include/x86_64-linux-gnu/bits" "wctype-wchar.h"
	.section	".note.GNU-stack","",@progbits